target datalayout = "e-m:e-p270:32:32-p271:32:32-p272:64:64-i64:64-i128:128-f80:128-n8:16:32:64-S128"
target triple = "x86_64-pc-linux-gnu"

%"class.llvm::SmallVectorBase" = type { ptr, i32, i32 }
%"class.llvm::DependenceInfo" = type <{ ptr, ptr, ptr, ptr, i32, i32, i32, [4 x i8] }>
%"class.llvm::SmallVector.289" = type { %"class.llvm::SmallVectorImpl.202", %"struct.llvm::SmallVectorStorage.290" }
%"class.llvm::SmallVectorImpl.202" = type { %"class.llvm::SmallVectorTemplateBase.203" }
%"class.llvm::SmallVectorTemplateBase.203" = type { %"class.llvm::SmallVectorTemplateCommon.204" }
%"class.llvm::SmallVectorTemplateCommon.204" = type { %"class.llvm::SmallVectorBase" }
%"struct.llvm::SmallVectorStorage.290" = type { [16 x i8] }
%"class.std::initializer_list" = type { ptr, i64 }
%"struct.llvm::DependenceInfo::BoundInfo" = type { ptr, [8 x ptr], [8 x ptr], i8, i8 }

; Function Attrs: mustprogress nounwind uwtable
define linkonce_odr hidden noundef ptr @_ZNK4llvm25SmallVectorTemplateCommonIPKNS_4SCEVEvE10getFirstElEv(ptr noundef nonnull align 8 dereferenceable(16) %0) #1 comdat align 2 {
  %2 = alloca ptr, align 8
  store ptr %0, ptr %2, align 8
  %3 = load ptr, ptr %2, align 8
  %4 = getelementptr inbounds i8, ptr %3, i64 16
  ret ptr %4
}

; Function Attrs: mustprogress nounwind uwtable
define linkonce_odr hidden noundef i64 @_ZNKSt16initializer_listIPKN4llvm4SCEVEE4sizeEv(ptr noundef nonnull align 8 dereferenceable(16) %0) #1 comdat align 2 {
  %2 = alloca ptr, align 8
  store ptr %0, ptr %2, align 8
  %3 = load ptr, ptr %2, align 8
  %4 = getelementptr inbounds nuw %"class.std::initializer_list", ptr %3, i32 0, i32 1
  %5 = load i64, ptr %4, align 8
  ret i64 %5
}

; Function Attrs: mustprogress nounwind uwtable
define linkonce_odr hidden void @_ZN4llvm25SmallVectorTemplateCommonIPKNS_4SCEVEvEC2Em(ptr noundef nonnull align 8 dereferenceable(16) %0, i64 noundef %1) unnamed_addr #1 comdat align 2 {
  %3 = alloca ptr, align 8
  %4 = alloca i64, align 8
  store ptr %0, ptr %3, align 8
  store i64 %1, ptr %4, align 8
  %5 = load ptr, ptr %3, align 8
  %6 = call noundef ptr @_ZNK4llvm25SmallVectorTemplateCommonIPKNS_4SCEVEvE10getFirstElEv(ptr noundef nonnull align 8 dereferenceable(16) %5)
  %7 = load i64, ptr %4, align 8
  call void @_ZN4llvm15SmallVectorBaseIjEC2EPvm(ptr noundef nonnull align 8 dereferenceable(16) %5, ptr noundef %6, i64 noundef %7)
  ret void
}

; Function Attrs: mustprogress nounwind uwtable
define linkonce_odr hidden noundef zeroext i1 @_ZNK4llvm25SmallVectorTemplateCommonIPKNS_4SCEVEvE7isSmallEv(ptr noundef nonnull align 8 dereferenceable(16) %0) #1 comdat align 2 {
  %2 = alloca ptr, align 8
  store ptr %0, ptr %2, align 8
  %3 = load ptr, ptr %2, align 8
  %4 = getelementptr inbounds nuw %"class.llvm::SmallVectorBase", ptr %3, i32 0, i32 0
  %5 = load ptr, ptr %4, align 8
  %6 = call noundef ptr @_ZNK4llvm25SmallVectorTemplateCommonIPKNS_4SCEVEvE10getFirstElEv(ptr noundef nonnull align 8 dereferenceable(16) %3)
  %7 = icmp eq ptr %5, %6
  ret i1 %7
}

; Function Attrs: mustprogress nounwind uwtable
define linkonce_odr hidden noundef ptr @_ZNKSt16initializer_listIPKN4llvm4SCEVEE3endEv(ptr noundef nonnull align 8 dereferenceable(16) %0) #1 comdat align 2 {
  %2 = alloca ptr, align 8
  store ptr %0, ptr %2, align 8
  %3 = load ptr, ptr %2, align 8
  %4 = call noundef ptr @_ZNKSt16initializer_listIPKN4llvm4SCEVEE5beginEv(ptr noundef nonnull align 8 dereferenceable(16) %3) #2
  %5 = call noundef i64 @_ZNKSt16initializer_listIPKN4llvm4SCEVEE4sizeEv(ptr noundef nonnull align 8 dereferenceable(16) %3) #2
  %6 = getelementptr inbounds ptr, ptr %4, i64 %5
  ret ptr %6
}

; Function Attrs: mustprogress nounwind uwtable
define linkonce_odr hidden noundef ptr @_ZNKSt16initializer_listIPKN4llvm4SCEVEE5beginEv(ptr noundef nonnull align 8 dereferenceable(16) %0) #1 comdat align 2 {
  %2 = alloca ptr, align 8
  store ptr %0, ptr %2, align 8
  %3 = load ptr, ptr %2, align 8
  %4 = getelementptr inbounds nuw %"class.std::initializer_list", ptr %3, i32 0, i32 0
  %5 = load ptr, ptr %4, align 8
  ret ptr %5
}

; Function Attrs: mustprogress nounwind uwtable
define linkonce_odr hidden void @_ZN4llvm23SmallVectorTemplateBaseIPKNS_4SCEVELb1EEC2Em(ptr noundef nonnull align 8 dereferenceable(16) %0, i64 noundef %1) unnamed_addr #1 comdat align 2 {
  %3 = alloca ptr, align 8
  %4 = alloca i64, align 8
  store ptr %0, ptr %3, align 8
  store i64 %1, ptr %4, align 8
  %5 = load ptr, ptr %3, align 8
  %6 = load i64, ptr %4, align 8
  call void @_ZN4llvm25SmallVectorTemplateCommonIPKNS_4SCEVEvEC2Em(ptr noundef nonnull align 8 dereferenceable(16) %5, i64 noundef %6)
  ret void
}

; Function Attrs: mustprogress nounwind uwtable
define linkonce_odr hidden void @_ZN4llvm15SmallVectorImplIPKNS_4SCEVEED2Ev(ptr noundef nonnull align 8 dereferenceable(16) %0) unnamed_addr #1 comdat align 2 {
  %2 = alloca ptr, align 8
  store ptr %0, ptr %2, align 8
  %3 = load ptr, ptr %2, align 8
  %4 = call noundef zeroext i1 @_ZNK4llvm25SmallVectorTemplateCommonIPKNS_4SCEVEvE7isSmallEv(ptr noundef nonnull align 8 dereferenceable(16) %3)
  br i1 %4, label %7, label %5

5:                                                ; preds = %1
  %6 = call noundef ptr @_ZN4llvm25SmallVectorTemplateCommonIPKNS_4SCEVEvE5beginEv(ptr noundef nonnull align 8 dereferenceable(16) %3)
  call void @free(ptr noundef %6) #2
  br label %7

7:                                                ; preds = %5, %1
  ret void
}

; Function Attrs: mustprogress nounwind uwtable
define linkonce_odr hidden void @_ZN4llvm23SmallVectorTemplateBaseIPKNS_4SCEVELb1EE13destroy_rangeEPS3_S5_(ptr noundef %0, ptr noundef %1) #1 comdat align 2 {
  %3 = alloca ptr, align 8
  %4 = alloca ptr, align 8
  store ptr %0, ptr %3, align 8
  store ptr %1, ptr %4, align 8
  ret void
}

; Function Attrs: mustprogress nounwind uwtable
define linkonce_odr hidden noundef ptr @_ZN4llvm25SmallVectorTemplateCommonIPKNS_4SCEVEvE3endEv(ptr noundef nonnull align 8 dereferenceable(16) %0) #1 comdat align 2 {
  %2 = alloca ptr, align 8
  store ptr %0, ptr %2, align 8
  %3 = load ptr, ptr %2, align 8
  %4 = call noundef ptr @_ZN4llvm25SmallVectorTemplateCommonIPKNS_4SCEVEvE5beginEv(ptr noundef nonnull align 8 dereferenceable(16) %3)
  %5 = call noundef i64 @_ZNK4llvm15SmallVectorBaseIjE4sizeEv(ptr noundef nonnull align 8 dereferenceable(16) %3)
  %6 = getelementptr inbounds ptr, ptr %4, i64 %5
  ret ptr %6
}

; Function Attrs: mustprogress nounwind uwtable
define linkonce_odr hidden noundef ptr @_ZN4llvm25SmallVectorTemplateCommonIPKNS_4SCEVEvE5beginEv(ptr noundef nonnull align 8 dereferenceable(16) %0) #1 comdat align 2 {
  %2 = alloca ptr, align 8
  store ptr %0, ptr %2, align 8
  %3 = load ptr, ptr %2, align 8
  %4 = getelementptr inbounds nuw %"class.llvm::SmallVectorBase", ptr %3, i32 0, i32 0
  %5 = load ptr, ptr %4, align 8
  ret ptr %5
}

; Function Attrs: mustprogress nounwind uwtable
define linkonce_odr hidden void @_ZN4llvm15SmallVectorImplIPKNS_4SCEVEE6appendESt16initializer_listIS3_E(ptr noundef nonnull align 8 dereferenceable(16) %0, ptr %1, i64 %2) #1 comdat align 2 {
  %4 = alloca %"class.std::initializer_list", align 8
  %5 = alloca ptr, align 8
  %6 = getelementptr inbounds nuw { ptr, i64 }, ptr %4, i32 0, i32 0
  store ptr %1, ptr %6, align 8
  %7 = getelementptr inbounds nuw { ptr, i64 }, ptr %4, i32 0, i32 1
  store i64 %2, ptr %7, align 8
  store ptr %0, ptr %5, align 8
  %8 = load ptr, ptr %5, align 8
  %9 = call noundef ptr @_ZNKSt16initializer_listIPKN4llvm4SCEVEE5beginEv(ptr noundef nonnull align 8 dereferenceable(16) %4) #2
  %10 = call noundef ptr @_ZNKSt16initializer_listIPKN4llvm4SCEVEE3endEv(ptr noundef nonnull align 8 dereferenceable(16) %4) #2
  call void @_ZN4llvm15SmallVectorImplIPKNS_4SCEVEE6appendIPKS3_vEEvT_S8_(ptr noundef nonnull align 8 dereferenceable(16) %8, ptr noundef %9, ptr noundef %10)
  ret void
}

; Function Attrs: mustprogress nounwind uwtable
define linkonce_odr hidden void @_ZN4llvm15SmallVectorImplIPKNS_4SCEVEEC2Ej(ptr noundef nonnull align 8 dereferenceable(16) %0, i32 noundef %1) unnamed_addr #1 comdat align 2 {
  %3 = alloca ptr, align 8
  %4 = alloca i32, align 4
  store ptr %0, ptr %3, align 8
  store i32 %1, ptr %4, align 4
  %5 = load ptr, ptr %3, align 8
  %6 = load i32, ptr %4, align 4
  %7 = zext i32 %6 to i64
  call void @_ZN4llvm23SmallVectorTemplateBaseIPKNS_4SCEVELb1EEC2Em(ptr noundef nonnull align 8 dereferenceable(16) %5, i64 noundef %7)
  ret void
}

; Function Attrs: mustprogress nounwind uwtable
define linkonce_odr hidden void @_ZN4llvm11SmallVectorIPKNS_4SCEVELj2EED2Ev(ptr noundef nonnull align 8 dereferenceable(32) %0) unnamed_addr #1 comdat align 2 {
  %2 = alloca ptr, align 8
  store ptr %0, ptr %2, align 8
  %3 = load ptr, ptr %2, align 8
  %4 = call noundef ptr @_ZN4llvm25SmallVectorTemplateCommonIPKNS_4SCEVEvE5beginEv(ptr noundef nonnull align 8 dereferenceable(16) %3)
  %5 = call noundef ptr @_ZN4llvm25SmallVectorTemplateCommonIPKNS_4SCEVEvE3endEv(ptr noundef nonnull align 8 dereferenceable(16) %3)
  call void @_ZN4llvm23SmallVectorTemplateBaseIPKNS_4SCEVELb1EE13destroy_rangeEPS3_S5_(ptr noundef %4, ptr noundef %5)
  call void @_ZN4llvm15SmallVectorImplIPKNS_4SCEVEED2Ev(ptr noundef nonnull align 8 dereferenceable(16) %3) #2
  ret void
}

; Function Attrs: mustprogress nounwind uwtable
define linkonce_odr hidden void @_ZN4llvm11SmallVectorIPKNS_4SCEVELj2EEC2ESt16initializer_listIS3_E(ptr noundef nonnull align 8 dereferenceable(32) %0, ptr %1, i64 %2) unnamed_addr #1 comdat align 2 {
  %4 = alloca %"class.std::initializer_list", align 8
  %5 = alloca ptr, align 8
  %6 = alloca %"class.std::initializer_list", align 8
  %7 = getelementptr inbounds nuw { ptr, i64 }, ptr %4, i32 0, i32 0
  store ptr %1, ptr %7, align 8
  %8 = getelementptr inbounds nuw { ptr, i64 }, ptr %4, i32 0, i32 1
  store i64 %2, ptr %8, align 8
  store ptr %0, ptr %5, align 8
  %9 = load ptr, ptr %5, align 8
  call void @_ZN4llvm15SmallVectorImplIPKNS_4SCEVEEC2Ej(ptr noundef nonnull align 8 dereferenceable(16) %9, i32 noundef 2)
  call void @llvm.memcpy.p0.p0.i64(ptr align 8 %6, ptr align 8 %4, i64 16, i1 false)
  %10 = getelementptr inbounds nuw { ptr, i64 }, ptr %6, i32 0, i32 0
  %11 = load ptr, ptr %10, align 8
  %12 = getelementptr inbounds nuw { ptr, i64 }, ptr %6, i32 0, i32 1
  %13 = load i64, ptr %12, align 8
  call void @_ZN4llvm15SmallVectorImplIPKNS_4SCEVEE6appendESt16initializer_listIS3_E(ptr noundef nonnull align 8 dereferenceable(16) %9, ptr %11, i64 %13)
  ret void
}

; Function Attrs: mustprogress nounwind uwtable
define linkonce_odr hidden noundef ptr @_ZN4llvm15ScalarEvolution10getAddExprEPKNS_4SCEVES3_NS1_11NoWrapFlagsEj(ptr noundef nonnull align 8 dereferenceable(1392) %0, ptr noundef %1, ptr noundef %2, i32 noundef %3, i32 noundef %4) #1 comdat align 2 {
  %6 = alloca ptr, align 8
  %7 = alloca ptr, align 8
  %8 = alloca ptr, align 8
  %9 = alloca i32, align 4
  %10 = alloca i32, align 4
  %11 = alloca %"class.llvm::SmallVector.289", align 8
  %12 = alloca %"class.std::initializer_list", align 8
  %13 = alloca [2 x ptr], align 8
  store ptr %0, ptr %6, align 8
  store ptr %1, ptr %7, align 8
  store ptr %2, ptr %8, align 8
  store i32 %3, ptr %9, align 4
  store i32 %4, ptr %10, align 4
  %14 = load ptr, ptr %6, align 8
  %15 = load ptr, ptr %7, align 8
  store ptr %15, ptr %13, align 8
  %16 = getelementptr inbounds ptr, ptr %13, i64 1
  %17 = load ptr, ptr %8, align 8
  store ptr %17, ptr %16, align 8
  %18 = getelementptr inbounds nuw %"class.std::initializer_list", ptr %12, i32 0, i32 0
  store ptr %13, ptr %18, align 8
  %19 = getelementptr inbounds nuw %"class.std::initializer_list", ptr %12, i32 0, i32 1
  store i64 2, ptr %19, align 8
  %20 = getelementptr inbounds nuw { ptr, i64 }, ptr %12, i32 0, i32 0
  %21 = load ptr, ptr %20, align 8
  %22 = getelementptr inbounds nuw { ptr, i64 }, ptr %12, i32 0, i32 1
  %23 = load i64, ptr %22, align 8
  call void @_ZN4llvm11SmallVectorIPKNS_4SCEVELj2EEC2ESt16initializer_listIS3_E(ptr noundef nonnull align 8 dereferenceable(32) %11, ptr %21, i64 %23)
  %24 = load i32, ptr %9, align 4
  %25 = load i32, ptr %10, align 4
  %26 = call noundef ptr @_ZN4llvm15ScalarEvolution10getAddExprERNS_15SmallVectorImplIPKNS_4SCEVEEENS2_11NoWrapFlagsEj(ptr noundef nonnull align 8 dereferenceable(1392) %14, ptr noundef nonnull align 8 dereferenceable(16) %11, i32 noundef %24, i32 noundef %25)
  call void @_ZN4llvm11SmallVectorIPKNS_4SCEVELj2EED2Ev(ptr noundef nonnull align 8 dereferenceable(32) %11) #2
  ret ptr %26
}

; Function Attrs: mustprogress nounwind uwtable
define dso_local noundef ptr @_ZNK4llvm14DependenceInfo13getLowerBoundEPNS0_9BoundInfoE(ptr noundef nonnull align 8 dereferenceable(44) %0, ptr noundef %1) #1 align 2 {
  %3 = alloca ptr, align 8
  %4 = alloca ptr, align 8
  %5 = alloca ptr, align 8
  %6 = alloca i32, align 4
  store ptr %0, ptr %3, align 8
  store ptr %1, ptr %4, align 8
  %7 = load ptr, ptr %3, align 8
  %8 = load ptr, ptr %4, align 8
  %9 = getelementptr inbounds %"struct.llvm::DependenceInfo::BoundInfo", ptr %8, i64 1
  %10 = getelementptr inbounds nuw %"struct.llvm::DependenceInfo::BoundInfo", ptr %9, i32 0, i32 2
  %11 = load ptr, ptr %4, align 8
  %12 = getelementptr inbounds %"struct.llvm::DependenceInfo::BoundInfo", ptr %11, i64 1
  %13 = getelementptr inbounds nuw %"struct.llvm::DependenceInfo::BoundInfo", ptr %12, i32 0, i32 3
  %14 = load i8, ptr %13, align 8
  %15 = zext i8 %14 to i64
  %16 = getelementptr inbounds [8 x ptr], ptr %10, i64 0, i64 %15
  %17 = load ptr, ptr %16, align 8
  store ptr %17, ptr %5, align 8
  store i32 2, ptr %6, align 4
  br label %18

18:                                               ; preds = %65, %2
  %19 = load ptr, ptr %5, align 8
  %20 = icmp ne ptr %19, null
  br i1 %20, label %21, label %26

21:                                               ; preds = %18
  %22 = load i32, ptr %6, align 4
  %23 = getelementptr inbounds nuw %"class.llvm::DependenceInfo", ptr %7, i32 0, i32 6
  %24 = load i32, ptr %23, align 8
  %25 = icmp ule i32 %22, %24
  br label %26

26:                                               ; preds = %21, %18
  %27 = phi i1 [ false, %18 ], [ %25, %21 ]
  br i1 %27, label %28, label %68

28:                                               ; preds = %26
  %29 = load ptr, ptr %4, align 8
  %30 = load i32, ptr %6, align 4
  %31 = zext i32 %30 to i64
  %32 = getelementptr inbounds %"struct.llvm::DependenceInfo::BoundInfo", ptr %29, i64 %31
  %33 = getelementptr inbounds nuw %"struct.llvm::DependenceInfo::BoundInfo", ptr %32, i32 0, i32 2
  %34 = load ptr, ptr %4, align 8
  %35 = load i32, ptr %6, align 4
  %36 = zext i32 %35 to i64
  %37 = getelementptr inbounds %"struct.llvm::DependenceInfo::BoundInfo", ptr %34, i64 %36
  %38 = getelementptr inbounds nuw %"struct.llvm::DependenceInfo::BoundInfo", ptr %37, i32 0, i32 3
  %39 = load i8, ptr %38, align 8
  %40 = zext i8 %39 to i64
  %41 = getelementptr inbounds [8 x ptr], ptr %33, i64 0, i64 %40
  %42 = load ptr, ptr %41, align 8
  %43 = icmp ne ptr %42, null
  br i1 %43, label %44, label %63

44:                                               ; preds = %28
  %45 = getelementptr inbounds nuw %"class.llvm::DependenceInfo", ptr %7, i32 0, i32 1
  %46 = load ptr, ptr %45, align 8
  %47 = load ptr, ptr %5, align 8
  %48 = load ptr, ptr %4, align 8
  %49 = load i32, ptr %6, align 4
  %50 = zext i32 %49 to i64
  %51 = getelementptr inbounds %"struct.llvm::DependenceInfo::BoundInfo", ptr %48, i64 %50
  %52 = getelementptr inbounds nuw %"struct.llvm::DependenceInfo::BoundInfo", ptr %51, i32 0, i32 2
  %53 = load ptr, ptr %4, align 8
  %54 = load i32, ptr %6, align 4
  %55 = zext i32 %54 to i64
  %56 = getelementptr inbounds %"struct.llvm::DependenceInfo::BoundInfo", ptr %53, i64 %55
  %57 = getelementptr inbounds nuw %"struct.llvm::DependenceInfo::BoundInfo", ptr %56, i32 0, i32 3
  %58 = load i8, ptr %57, align 8
  %59 = zext i8 %58 to i64
  %60 = getelementptr inbounds [8 x ptr], ptr %52, i64 0, i64 %59
  %61 = load ptr, ptr %60, align 8
  %62 = call noundef ptr @_ZN4llvm15ScalarEvolution10getAddExprEPKNS_4SCEVES3_NS1_11NoWrapFlagsEj(ptr noundef nonnull align 8 dereferenceable(1392) %46, ptr noundef %47, ptr noundef %61, i32 noundef 0, i32 noundef 0)
  store ptr %62, ptr %5, align 8
  br label %64

63:                                               ; preds = %28
  store ptr null, ptr %5, align 8
  br label %64

64:                                               ; preds = %63, %44
  br label %65

65:                                               ; preds = %64
  %66 = load i32, ptr %6, align 4
  %67 = add i32 %66, 1
  store i32 %67, ptr %6, align 4
  br label %18, !llvm.loop !29

68:                                               ; preds = %26
  %69 = load ptr, ptr %5, align 8
  ret ptr %69
}